target datalayout = "e-m:e-p270:32:32-p271:32:32-p272:64:64-i64:64-i128:128-f80:128-n8:16:32:64-S128"
target triple = "x86_64-pc-linux-gnu"

%struct.H5O_pline_t = type { %struct.H5O_shared_t, i32, i64, i64, ptr }
%struct.H5O_shared_t = type { i32, ptr, i32, %union.anon.1 }
%union.anon.1 = type { %struct.H5O_mesg_loc_t }
%struct.H5O_mesg_loc_t = type { i32, i64 }
%struct.H5Z_filter_info_t = type { i32, i32, [12 x i8], ptr, i64, [4 x i32], ptr }

@.str = private unnamed_addr constant [97 x i8] c"generated/home/dtcxzyw/WorkSpace/Projects/compilers/llvm-opt-benchmark/bench/hdf5/hdf5/src/H5Z.c\00", align 1
@H5E_PLINE_g = external global i64, align 8
@H5E_CANTINIT_g = external global i64, align 8
@H5E_RESOURCE_g = external global i64, align 8
@H5E_NOSPACE_g = external global i64, align 8
@__func__.H5Z_append = private unnamed_addr constant [11 x i8] c"H5Z_append\00", align 1
@.str.29 = private unnamed_addr constant [29 x i8] c"too many filters in pipeline\00", align 1
@.str.30 = private unnamed_addr constant [45 x i8] c"memory allocation failed for filter pipeline\00", align 1
@.str.31 = private unnamed_addr constant [36 x i8] c"memory allocation failed for filter\00", align 1

; Function Attrs: nounwind uwtable
define i32 @H5Z_append(ptr noundef %0, i32 noundef %1, i32 noundef %2, i64 noundef %3, ptr noundef %4) #0 {
  %6 = alloca ptr, align 8
  %7 = alloca i32, align 4
  %8 = alloca i32, align 4
  %9 = alloca i64, align 8
  %10 = alloca ptr, align 8
  %11 = alloca i64, align 8
  %12 = alloca i32, align 4
  %13 = alloca i8, align 1
  %14 = alloca %struct.H5O_pline_t, align 8
  %15 = alloca i64, align 8
  %16 = alloca i64, align 8
  store ptr %0, ptr %6, align 8
  store i32 %1, ptr %7, align 4
  store i32 %2, ptr %8, align 4
  store i64 %3, ptr %9, align 8
  store ptr %4, ptr %10, align 8
  store i32 0, ptr %12, align 4
  store i8 0, ptr %13, align 1
  %17 = load ptr, ptr %6, align 8
  %18 = getelementptr inbounds %struct.H5O_pline_t, ptr %17, i32 0, i32 3
  %19 = load i64, ptr %18, align 8
  %20 = icmp uge i64 %19, 32
  br i1 %20, label %21, label %36

21:                                               ; preds = %5
  br label %22

22:                                               ; preds = %21
  br label %23

23:                                               ; preds = %22
  br label %24

24:                                               ; preds = %23
  %25 = load i64, ptr @H5E_PLINE_g, align 8
  %26 = load i64, ptr @H5E_CANTINIT_g, align 8
  %27 = call i32 (ptr, ptr, i32, i64, i64, ptr, ...) @H5E_printf_stack(ptr noundef @.str, ptr noundef @__func__.H5Z_append, i32 noundef 1195, i64 noundef %25, i64 noundef %26, ptr noundef @.str.29)
  br label %28

28:                                               ; preds = %24
  store i8 1, ptr %13, align 1
  %29 = load i8, ptr %13, align 1
  %30 = trunc i8 %29 to i1
  %31 = zext i1 %30 to i8
  store i8 %31, ptr %13, align 1
  br label %32

32:                                               ; preds = %28
  br label %33

33:                                               ; preds = %32
  store i32 -1, ptr %12, align 4
  br label %286

34:                                               ; No predecessors!
  br label %35

35:                                               ; preds = %34
  br label %36

36:                                               ; preds = %35, %5
  %37 = load ptr, ptr %6, align 8
  %38 = getelementptr inbounds %struct.H5O_pline_t, ptr %37, i32 0, i32 1
  %39 = load i32, ptr %38, align 8
  %40 = icmp eq i32 %39, 0
  br i1 %40, label %41, label %44

41:                                               ; preds = %36
  %42 = load ptr, ptr %6, align 8
  %43 = getelementptr inbounds %struct.H5O_pline_t, ptr %42, i32 0, i32 1
  store i32 1, ptr %43, align 8
  br label %44

44:                                               ; preds = %41, %36
  %45 = load ptr, ptr %6, align 8
  %46 = getelementptr inbounds %struct.H5O_pline_t, ptr %45, i32 0, i32 3
  %47 = load i64, ptr %46, align 8
  %48 = load ptr, ptr %6, align 8
  %49 = getelementptr inbounds %struct.H5O_pline_t, ptr %48, i32 0, i32 2
  %50 = load i64, ptr %49, align 8
  %51 = icmp uge i64 %47, %50
  br i1 %51, label %52, label %167

52:                                               ; preds = %44
  store i64 0, ptr %15, align 8
  br label %53

53:                                               ; preds = %83, %52
  %54 = load i64, ptr %15, align 8
  %55 = load ptr, ptr %6, align 8
  %56 = getelementptr inbounds %struct.H5O_pline_t, ptr %55, i32 0, i32 2
  %57 = load i64, ptr %56, align 8
  %58 = icmp ult i64 %54, %57
  br i1 %58, label %59, label %86

59:                                               ; preds = %53
  %60 = load ptr, ptr %6, align 8
  %61 = getelementptr inbounds %struct.H5O_pline_t, ptr %60, i32 0, i32 4
  %62 = load ptr, ptr %61, align 8
  %63 = load i64, ptr %15, align 8
  %64 = getelementptr inbounds %struct.H5Z_filter_info_t, ptr %62, i64 %63
  %65 = getelementptr inbounds %struct.H5Z_filter_info_t, ptr %64, i32 0, i32 6
  %66 = load ptr, ptr %65, align 8
  %67 = load ptr, ptr %6, align 8
  %68 = getelementptr inbounds %struct.H5O_pline_t, ptr %67, i32 0, i32 4
  %69 = load ptr, ptr %68, align 8
  %70 = load i64, ptr %15, align 8
  %71 = getelementptr inbounds %struct.H5Z_filter_info_t, ptr %69, i64 %70
  %72 = getelementptr inbounds %struct.H5Z_filter_info_t, ptr %71, i32 0, i32 5
  %73 = getelementptr inbounds [4 x i32], ptr %72, i64 0, i64 0
  %74 = icmp eq ptr %66, %73
  br i1 %74, label %75, label %82

75:                                               ; preds = %59
  %76 = load ptr, ptr %6, align 8
  %77 = getelementptr inbounds %struct.H5O_pline_t, ptr %76, i32 0, i32 4
  %78 = load ptr, ptr %77, align 8
  %79 = load i64, ptr %15, align 8
  %80 = getelementptr inbounds %struct.H5Z_filter_info_t, ptr %78, i64 %79
  %81 = getelementptr inbounds %struct.H5Z_filter_info_t, ptr %80, i32 0, i32 6
  store ptr inttoptr (i64 -1 to ptr), ptr %81, align 8
  br label %82

82:                                               ; preds = %75, %59
  br label %83

83:                                               ; preds = %82
  %84 = load i64, ptr %15, align 8
  %85 = add i64 %84, 1
  store i64 %85, ptr %15, align 8
  br label %53

86:                                               ; preds = %53
  %87 = load ptr, ptr %6, align 8
  %88 = getelementptr inbounds %struct.H5O_pline_t, ptr %87, i32 0, i32 2
  %89 = load i64, ptr %88, align 8
  %90 = mul i64 2, %89
  %91 = icmp ugt i64 32, %90
  br i1 %91, label %92, label %93

92:                                               ; preds = %86
  br label %98

93:                                               ; preds = %86
  %94 = load ptr, ptr %6, align 8
  %95 = getelementptr inbounds %struct.H5O_pline_t, ptr %94, i32 0, i32 2
  %96 = load i64, ptr %95, align 8
  %97 = mul i64 2, %96
  br label %98

98:                                               ; preds = %93, %92
  %99 = phi i64 [ 32, %92 ], [ %97, %93 ]
  %100 = getelementptr inbounds %struct.H5O_pline_t, ptr %14, i32 0, i32 2
  store i64 %99, ptr %100, align 8
  %101 = load ptr, ptr %6, align 8
  %102 = getelementptr inbounds %struct.H5O_pline_t, ptr %101, i32 0, i32 4
  %103 = load ptr, ptr %102, align 8
  %104 = getelementptr inbounds %struct.H5O_pline_t, ptr %14, i32 0, i32 2
  %105 = load i64, ptr %104, align 8
  %106 = mul i64 %105, 64
  %107 = call ptr @H5MM_realloc(ptr noundef %103, i64 noundef %106)
  %108 = getelementptr inbounds %struct.H5O_pline_t, ptr %14, i32 0, i32 4
  store ptr %107, ptr %108, align 8
  %109 = getelementptr inbounds %struct.H5O_pline_t, ptr %14, i32 0, i32 4
  %110 = load ptr, ptr %109, align 8
  %111 = icmp eq ptr null, %110
  br i1 %111, label %112, label %127

112:                                              ; preds = %98
  br label %113

113:                                              ; preds = %112
  br label %114

114:                                              ; preds = %113
  br label %115

115:                                              ; preds = %114
  %116 = load i64, ptr @H5E_RESOURCE_g, align 8
  %117 = load i64, ptr @H5E_NOSPACE_g, align 8
  %118 = call i32 (ptr, ptr, i32, i64, i64, ptr, ...) @H5E_printf_stack(ptr noundef @.str, ptr noundef @__func__.H5Z_append, i32 noundef 1220, i64 noundef %116, i64 noundef %117, ptr noundef @.str.30)
  br label %119

119:                                              ; preds = %115
  store i8 1, ptr %13, align 1
  %120 = load i8, ptr %13, align 1
  %121 = trunc i8 %120 to i1
  %122 = zext i1 %121 to i8
  store i8 %122, ptr %13, align 1
  br label %123

123:                                              ; preds = %119
  br label %124

124:                                              ; preds = %123
  store i32 -1, ptr %12, align 4
  br label %286

125:                                              ; No predecessors!
  br label %126

126:                                              ; preds = %125
  br label %127

127:                                              ; preds = %126, %98
  store i64 0, ptr %15, align 8
  br label %128

128:                                              ; preds = %155, %127
  %129 = load i64, ptr %15, align 8
  %130 = load ptr, ptr %6, align 8
  %131 = getelementptr inbounds %struct.H5O_pline_t, ptr %130, i32 0, i32 2
  %132 = load i64, ptr %131, align 8
  %133 = icmp ult i64 %129, %132
  br i1 %133, label %134, label %158

134:                                              ; preds = %128
  %135 = getelementptr inbounds %struct.H5O_pline_t, ptr %14, i32 0, i32 4
  %136 = load ptr, ptr %135, align 8
  %137 = load i64, ptr %15, align 8
  %138 = getelementptr inbounds %struct.H5Z_filter_info_t, ptr %136, i64 %137
  %139 = getelementptr inbounds %struct.H5Z_filter_info_t, ptr %138, i32 0, i32 6
  %140 = load ptr, ptr %139, align 8
  %141 = icmp eq ptr %140, inttoptr (i64 -1 to ptr)
  br i1 %141, label %142, label %154

142:                                              ; preds = %134
  %143 = getelementptr inbounds %struct.H5O_pline_t, ptr %14, i32 0, i32 4
  %144 = load ptr, ptr %143, align 8
  %145 = load i64, ptr %15, align 8
  %146 = getelementptr inbounds %struct.H5Z_filter_info_t, ptr %144, i64 %145
  %147 = getelementptr inbounds %struct.H5Z_filter_info_t, ptr %146, i32 0, i32 5
  %148 = getelementptr inbounds [4 x i32], ptr %147, i64 0, i64 0
  %149 = getelementptr inbounds %struct.H5O_pline_t, ptr %14, i32 0, i32 4
  %150 = load ptr, ptr %149, align 8
  %151 = load i64, ptr %15, align 8
  %152 = getelementptr inbounds %struct.H5Z_filter_info_t, ptr %150, i64 %151
  %153 = getelementptr inbounds %struct.H5Z_filter_info_t, ptr %152, i32 0, i32 6
  store ptr %148, ptr %153, align 8
  br label %154

154:                                              ; preds = %142, %134
  br label %155

155:                                              ; preds = %154
  %156 = load i64, ptr %15, align 8
  %157 = add i64 %156, 1
  store i64 %157, ptr %15, align 8
  br label %128

158:                                              ; preds = %128
  %159 = getelementptr inbounds %struct.H5O_pline_t, ptr %14, i32 0, i32 2
  %160 = load i64, ptr %159, align 8
  %161 = load ptr, ptr %6, align 8
  %162 = getelementptr inbounds %struct.H5O_pline_t, ptr %161, i32 0, i32 2
  store i64 %160, ptr %162, align 8
  %163 = getelementptr inbounds %struct.H5O_pline_t, ptr %14, i32 0, i32 4
  %164 = load ptr, ptr %163, align 8
  %165 = load ptr, ptr %6, align 8
  %166 = getelementptr inbounds %struct.H5O_pline_t, ptr %165, i32 0, i32 4
  store ptr %164, ptr %166, align 8
  br label %167

167:                                              ; preds = %158, %44
  %168 = load ptr, ptr %6, align 8
  %169 = getelementptr inbounds %struct.H5O_pline_t, ptr %168, i32 0, i32 3
  %170 = load i64, ptr %169, align 8
  store i64 %170, ptr %11, align 8
  %171 = load i32, ptr %7, align 4
  %172 = load ptr, ptr %6, align 8
  %173 = getelementptr inbounds %struct.H5O_pline_t, ptr %172, i32 0, i32 4
  %174 = load ptr, ptr %173, align 8
  %175 = load i64, ptr %11, align 8
  %176 = getelementptr inbounds %struct.H5Z_filter_info_t, ptr %174, i64 %175
  %177 = getelementptr inbounds %struct.H5Z_filter_info_t, ptr %176, i32 0, i32 0
  store i32 %171, ptr %177, align 8
  %178 = load i32, ptr %8, align 4
  %179 = load ptr, ptr %6, align 8
  %180 = getelementptr inbounds %struct.H5O_pline_t, ptr %179, i32 0, i32 4
  %181 = load ptr, ptr %180, align 8
  %182 = load i64, ptr %11, align 8
  %183 = getelementptr inbounds %struct.H5Z_filter_info_t, ptr %181, i64 %182
  %184 = getelementptr inbounds %struct.H5Z_filter_info_t, ptr %183, i32 0, i32 1
  store i32 %178, ptr %184, align 4
  %185 = load ptr, ptr %6, align 8
  %186 = getelementptr inbounds %struct.H5O_pline_t, ptr %185, i32 0, i32 4
  %187 = load ptr, ptr %186, align 8
  %188 = load i64, ptr %11, align 8
  %189 = getelementptr inbounds %struct.H5Z_filter_info_t, ptr %187, i64 %188
  %190 = getelementptr inbounds %struct.H5Z_filter_info_t, ptr %189, i32 0, i32 3
  store ptr null, ptr %190, align 8
  %191 = load i64, ptr %9, align 8
  %192 = load ptr, ptr %6, align 8
  %193 = getelementptr inbounds %struct.H5O_pline_t, ptr %192, i32 0, i32 4
  %194 = load ptr, ptr %193, align 8
  %195 = load i64, ptr %11, align 8
  %196 = getelementptr inbounds %struct.H5Z_filter_info_t, ptr %194, i64 %195
  %197 = getelementptr inbounds %struct.H5Z_filter_info_t, ptr %196, i32 0, i32 4
  store i64 %191, ptr %197, align 8
  %198 = load i64, ptr %9, align 8
  %199 = icmp ugt i64 %198, 0
  br i1 %199, label %200, label %274

200:                                              ; preds = %167
  %201 = load i64, ptr %9, align 8
  %202 = icmp ugt i64 %201, 4
  br i1 %202, label %203, label %237

203:                                              ; preds = %200
  %204 = load i64, ptr %9, align 8
  %205 = mul i64 %204, 4
  %206 = call noalias ptr @malloc(i64 noundef %205) #8
  %207 = load ptr, ptr %6, align 8
  %208 = getelementptr inbounds %struct.H5O_pline_t, ptr %207, i32 0, i32 4
  %209 = load ptr, ptr %208, align 8
  %210 = load i64, ptr %11, align 8
  %211 = getelementptr inbounds %struct.H5Z_filter_info_t, ptr %209, i64 %210
  %212 = getelementptr inbounds %struct.H5Z_filter_info_t, ptr %211, i32 0, i32 6
  store ptr %206, ptr %212, align 8
  %213 = load ptr, ptr %6, align 8
  %214 = getelementptr inbounds %struct.H5O_pline_t, ptr %213, i32 0, i32 4
  %215 = load ptr, ptr %214, align 8
  %216 = load i64, ptr %11, align 8
  %217 = getelementptr inbounds %struct.H5Z_filter_info_t, ptr %215, i64 %216
  %218 = getelementptr inbounds %struct.H5Z_filter_info_t, ptr %217, i32 0, i32 6
  %219 = load ptr, ptr %218, align 8
  %220 = icmp eq ptr null, %219
  br i1 %220, label %221, label %236

221:                                              ; preds = %203
  br label %222

222:                                              ; preds = %221
  br label %223

223:                                              ; preds = %222
  br label %224

224:                                              ; preds = %223
  %225 = load i64, ptr @H5E_RESOURCE_g, align 8
  %226 = load i64, ptr @H5E_NOSPACE_g, align 8
  %227 = call i32 (ptr, ptr, i32, i64, i64, ptr, ...) @H5E_printf_stack(ptr noundef @.str, ptr noundef @__func__.H5Z_append, i32 noundef 1247, i64 noundef %225, i64 noundef %226, ptr noundef @.str.31)
  br label %228

228:                                              ; preds = %224
  store i8 1, ptr %13, align 1
  %229 = load i8, ptr %13, align 1
  %230 = trunc i8 %229 to i1
  %231 = zext i1 %230 to i8
  store i8 %231, ptr %13, align 1
  br label %232

232:                                              ; preds = %228
  br label %233

233:                                              ; preds = %232
  store i32 -1, ptr %12, align 4
  br label %286

234:                                              ; No predecessors!
  br label %235

235:                                              ; preds = %234
  br label %236

236:                                              ; preds = %235, %203
  br label %251

237:                                              ; preds = %200
  %238 = load ptr, ptr %6, align 8
  %239 = getelementptr inbounds %struct.H5O_pline_t, ptr %238, i32 0, i32 4
  %240 = load ptr, ptr %239, align 8
  %241 = load i64, ptr %11, align 8
  %242 = getelementptr inbounds %struct.H5Z_filter_info_t, ptr %240, i64 %241
  %243 = getelementptr inbounds %struct.H5Z_filter_info_t, ptr %242, i32 0, i32 5
  %244 = getelementptr inbounds [4 x i32], ptr %243, i64 0, i64 0
  %245 = load ptr, ptr %6, align 8
  %246 = getelementptr inbounds %struct.H5O_pline_t, ptr %245, i32 0, i32 4
  %247 = load ptr, ptr %246, align 8
  %248 = load i64, ptr %11, align 8
  %249 = getelementptr inbounds %struct.H5Z_filter_info_t, ptr %247, i64 %248
  %250 = getelementptr inbounds %struct.H5Z_filter_info_t, ptr %249, i32 0, i32 6
  store ptr %244, ptr %250, align 8
  br label %251

251:                                              ; preds = %237, %236
  store i64 0, ptr %16, align 8
  br label %252

252:                                              ; preds = %270, %251
  %253 = load i64, ptr %16, align 8
  %254 = load i64, ptr %9, align 8
  %255 = icmp ult i64 %253, %254
  br i1 %255, label %256, label %273

256:                                              ; preds = %252
  %257 = load ptr, ptr %10, align 8
  %258 = load i64, ptr %16, align 8
  %259 = getelementptr inbounds i32, ptr %257, i64 %258
  %260 = load i32, ptr %259, align 4
  %261 = load ptr, ptr %6, align 8
  %262 = getelementptr inbounds %struct.H5O_pline_t, ptr %261, i32 0, i32 4
  %263 = load ptr, ptr %262, align 8
  %264 = load i64, ptr %11, align 8
  %265 = getelementptr inbounds %struct.H5Z_filter_info_t, ptr %263, i64 %264
  %266 = getelementptr inbounds %struct.H5Z_filter_info_t, ptr %265, i32 0, i32 6
  %267 = load ptr, ptr %266, align 8
  %268 = load i64, ptr %16, align 8
  %269 = getelementptr inbounds i32, ptr %267, i64 %268
  store i32 %260, ptr %269, align 4
  br label %270

270:                                              ; preds = %256
  %271 = load i64, ptr %16, align 8
  %272 = add i64 %271, 1
  store i64 %272, ptr %16, align 8
  br label %252

273:                                              ; preds = %252
  br label %281

274:                                              ; preds = %167
  %275 = load ptr, ptr %6, align 8
  %276 = getelementptr inbounds %struct.H5O_pline_t, ptr %275, i32 0, i32 4
  %277 = load ptr, ptr %276, align 8
  %278 = load i64, ptr %11, align 8
  %279 = getelementptr inbounds %struct.H5Z_filter_info_t, ptr %277, i64 %278
  %280 = getelementptr inbounds %struct.H5Z_filter_info_t, ptr %279, i32 0, i32 6
  store ptr null, ptr %280, align 8
  br label %281

281:                                              ; preds = %274, %273
  %282 = load ptr, ptr %6, align 8
  %283 = getelementptr inbounds %struct.H5O_pline_t, ptr %282, i32 0, i32 3
  %284 = load i64, ptr %283, align 8
  %285 = add i64 %284, 1
  store i64 %285, ptr %283, align 8
  br label %286

286:                                              ; preds = %281, %233, %124, %33
  %287 = load i32, ptr %12, align 4
  ret i32 %287
}