; Function Attrs: nounwind uwtable
define range(i32 -1, 1) i32 @H5Z_append(ptr nocapture noundef %0, i32 noundef %1, i32 noundef %2, i64 noundef %3, ptr nocapture noundef readonly %4) local_unnamed_addr #0 {
  %6 = getelementptr inbounds i8, ptr %0, i64 56
  %7 = load i64, ptr %6, align 8
  %8 = icmp ugt i64 %7, 31
  br i1 %8, label %9, label %13

9:                                                ; preds = %5
  %10 = load i64, ptr @H5E_PLINE_g, align 8
  %11 = load i64, ptr @H5E_CANTINIT_g, align 8
  %12 = tail call i32 (ptr, ptr, i32, i64, i64, ptr, ...) @H5E_printf_stack(ptr noundef nonnull @.str, ptr noundef nonnull @__func__.H5Z_append, i32 noundef 1195, i64 noundef %10, i64 noundef %11, ptr noundef nonnull @.str.29) #9
  br label %101

13:                                               ; preds = %5
  %14 = getelementptr inbounds i8, ptr %0, i64 40
  %15 = load i32, ptr %14, align 8
  %16 = icmp eq i32 %15, 0
  br i1 %16, label %17, label %18

17:                                               ; preds = %13
  store i32 1, ptr %14, align 8
  br label %18

18:                                               ; preds = %17, %13
  %19 = getelementptr inbounds i8, ptr %0, i64 48
  %20 = load i64, ptr %19, align 8
  %.not = icmp ult i64 %7, %20
  br i1 %.not, label %._crit_edge85, label %.preheader74

._crit_edge85:                                    ; preds = %18
  %.phi.trans.insert = getelementptr inbounds i8, ptr %0, i64 64
  %.pre86 = load ptr, ptr %.phi.trans.insert, align 8
  br label %57

.preheader74:                                     ; preds = %18
  %.not80 = icmp eq i64 %20, 0
  br i1 %.not80, label %._crit_edge, label %.lr.ph

.lr.ph:                                           ; preds = %.preheader74
  %21 = getelementptr inbounds i8, ptr %0, i64 64
  br label %22

22:                                               ; preds = %.lr.ph, %31
  %23 = phi i64 [ %20, %.lr.ph ], [ %32, %31 ]
  %.06775 = phi i64 [ 0, %.lr.ph ], [ %33, %31 ]
  %24 = load ptr, ptr %21, align 8
  %25 = getelementptr inbounds %struct.H5Z_filter_info_t, ptr %24, i64 %.06775
  %26 = getelementptr inbounds i8, ptr %25, i64 56
  %27 = load ptr, ptr %26, align 8
  %28 = getelementptr inbounds i8, ptr %25, i64 40
  %29 = icmp eq ptr %27, %28
  br i1 %29, label %30, label %31

30:                                               ; preds = %22
  store ptr inttoptr (i64 -1 to ptr), ptr %26, align 8
  %.pre = load i64, ptr %19, align 8
  br label %31

31:                                               ; preds = %22, %30
  %32 = phi i64 [ %23, %22 ], [ %.pre, %30 ]
  %33 = add nuw i64 %.06775, 1
  %34 = icmp ult i64 %33, %32
  br i1 %34, label %22, label %._crit_edge.loopexit

._crit_edge.loopexit:                             ; preds = %31
  %35 = shl i64 %32, 1
  br label %._crit_edge

._crit_edge:                                      ; preds = %._crit_edge.loopexit, %.preheader74
  %.lcssa = phi i64 [ 0, %.preheader74 ], [ %35, %._crit_edge.loopexit ]
  %spec.select = tail call i64 @llvm.umax.i64(i64 %.lcssa, i64 32)
  %36 = getelementptr inbounds i8, ptr %0, i64 64
  %37 = load ptr, ptr %36, align 8
  %38 = shl i64 %spec.select, 6
  %39 = tail call ptr @H5MM_realloc(ptr noundef %37, i64 noundef %38) #9
  %40 = icmp eq ptr %39, null
  br i1 %40, label %42, label %.preheader

.preheader:                                       ; preds = %._crit_edge
  %41 = load i64, ptr %19, align 8
  %.not81 = icmp eq i64 %41, 0
  br i1 %.not81, label %._crit_edge78, label %.lr.ph77

42:                                               ; preds = %._crit_edge
  %43 = load i64, ptr @H5E_RESOURCE_g, align 8
  %44 = load i64, ptr @H5E_NOSPACE_g, align 8
  %45 = tail call i32 (ptr, ptr, i32, i64, i64, ptr, ...) @H5E_printf_stack(ptr noundef nonnull @.str, ptr noundef nonnull @__func__.H5Z_append, i32 noundef 1220, i64 noundef %43, i64 noundef %44, ptr noundef nonnull @.str.30) #9
  br label %101

.lr.ph77:                                         ; preds = %.preheader, %53
  %46 = phi i64 [ %54, %53 ], [ %41, %.preheader ]
  %.176 = phi i64 [ %55, %53 ], [ 0, %.preheader ]
  %47 = getelementptr inbounds %struct.H5Z_filter_info_t, ptr %39, i64 %.176
  %48 = getelementptr inbounds i8, ptr %47, i64 56
  %49 = load ptr, ptr %48, align 8
  %50 = icmp eq ptr %49, inttoptr (i64 -1 to ptr)
  br i1 %50, label %51, label %53

51:                                               ; preds = %.lr.ph77
  %52 = getelementptr inbounds i8, ptr %47, i64 40
  store ptr %52, ptr %48, align 8
  %.pre83 = load i64, ptr %19, align 8
  br label %53

53:                                               ; preds = %.lr.ph77, %51
  %54 = phi i64 [ %46, %.lr.ph77 ], [ %.pre83, %51 ]
  %55 = add nuw i64 %.176, 1
  %56 = icmp ult i64 %55, %54
  br i1 %56, label %.lr.ph77, label %._crit_edge78

._crit_edge78:                                    ; preds = %53, %.preheader
  store i64 %spec.select, ptr %19, align 8
  store ptr %39, ptr %36, align 8
  %.pre84 = load i64, ptr %6, align 8
  br label %57

57:                                               ; preds = %._crit_edge85, %._crit_edge78
  %58 = phi ptr [ %39, %._crit_edge78 ], [ %.pre86, %._crit_edge85 ]
  %59 = phi i64 [ %.pre84, %._crit_edge78 ], [ %7, %._crit_edge85 ]
  %60 = getelementptr inbounds i8, ptr %0, i64 64
  %61 = getelementptr inbounds %struct.H5Z_filter_info_t, ptr %58, i64 %59
  store i32 %1, ptr %61, align 8
  %62 = load ptr, ptr %60, align 8
  %63 = getelementptr inbounds %struct.H5Z_filter_info_t, ptr %62, i64 %59, i32 1
  store i32 %2, ptr %63, align 4
  %64 = load ptr, ptr %60, align 8
  %65 = getelementptr inbounds %struct.H5Z_filter_info_t, ptr %64, i64 %59, i32 3
  store ptr null, ptr %65, align 8
  %66 = load ptr, ptr %60, align 8
  %67 = getelementptr inbounds %struct.H5Z_filter_info_t, ptr %66, i64 %59, i32 4
  store i64 %3, ptr %67, align 8
  %.not73 = icmp eq i64 %3, 0
  br i1 %.not73, label %96, label %68

68:                                               ; preds = %57
  %69 = icmp ugt i64 %3, 4
  br i1 %69, label %70, label %83

70:                                               ; preds = %68
  %71 = shl i64 %3, 2
  %72 = tail call noalias ptr @malloc(i64 noundef %71) #11
  %73 = load ptr, ptr %60, align 8
  %74 = getelementptr inbounds %struct.H5Z_filter_info_t, ptr %73, i64 %59, i32 6
  store ptr %72, ptr %74, align 8
  %75 = load ptr, ptr %60, align 8
  %76 = getelementptr inbounds %struct.H5Z_filter_info_t, ptr %75, i64 %59, i32 6
  %77 = load ptr, ptr %76, align 8
  %78 = icmp eq ptr %77, null
  br i1 %78, label %79, label %.preheader89

79:                                               ; preds = %70
  %80 = load i64, ptr @H5E_RESOURCE_g, align 8
  %81 = load i64, ptr @H5E_NOSPACE_g, align 8
  %82 = tail call i32 (ptr, ptr, i32, i64, i64, ptr, ...) @H5E_printf_stack(ptr noundef nonnull @.str, ptr noundef nonnull @__func__.H5Z_append, i32 noundef 1247, i64 noundef %80, i64 noundef %81, ptr noundef nonnull @.str.31) #9
  br label %101

83:                                               ; preds = %68
  %84 = load ptr, ptr %60, align 8
  %85 = getelementptr inbounds %struct.H5Z_filter_info_t, ptr %84, i64 %59
  %86 = getelementptr inbounds i8, ptr %85, i64 40
  %87 = getelementptr inbounds i8, ptr %85, i64 56
  store ptr %86, ptr %87, align 8
  br label %.preheader89

.preheader89:                                     ; preds = %70, %83
  br label %88

88:                                               ; preds = %.preheader89, %88
  %.079 = phi i64 [ %95, %88 ], [ 0, %.preheader89 ]
  %89 = getelementptr inbounds i32, ptr %4, i64 %.079
  %90 = load i32, ptr %89, align 4
  %91 = load ptr, ptr %60, align 8
  %92 = getelementptr inbounds %struct.H5Z_filter_info_t, ptr %91, i64 %59, i32 6
  %93 = load ptr, ptr %92, align 8
  %94 = getelementptr inbounds i32, ptr %93, i64 %.079
  store i32 %90, ptr %94, align 4
  %95 = add nuw i64 %.079, 1
  %exitcond.not = icmp eq i64 %95, %3
  br i1 %exitcond.not, label %.loopexit, label %88

96:                                               ; preds = %57
  %97 = load ptr, ptr %60, align 8
  %98 = getelementptr inbounds %struct.H5Z_filter_info_t, ptr %97, i64 %59, i32 6
  store ptr null, ptr %98, align 8
  br label %.loopexit

.loopexit:                                        ; preds = %88, %96
  %99 = load i64, ptr %6, align 8
  %100 = add i64 %99, 1
  store i64 %100, ptr %6, align 8
  br label %101

101:                                              ; preds = %.loopexit, %79, %42, %9
  %.068 = phi i32 [ -1, %9 ], [ -1, %42 ], [ -1, %79 ], [ 0, %.loopexit ]
  ret i32 %.068
}